target datalayout = "e-m:e-p270:32:32-p271:32:32-p272:64:64-i64:64-i128:128-f80:128-n8:16:32:64-S128"
target triple = "x86_64-pc-linux-gnu"

%struct._zval_struct = type { %union._zend_value, %union.anon, %union.anon.2 }
%union._zend_value = type { i64 }
%union.anon = type { i32 }
%union.anon.2 = type { i32 }
%struct._php_stream_filter = type { ptr, %struct._zval_struct, ptr, ptr, i32, ptr, %struct._php_stream_bucket_brigade, ptr }
%struct._php_stream_bucket_brigade = type { ptr, ptr }
%struct._php_stream_bucket = type { ptr, ptr, ptr, ptr, i64, i8, i8, i32 }
%struct._php_stream = type { ptr, ptr, %struct._php_stream_filter_chain, %struct._php_stream_filter_chain, ptr, ptr, %struct._zval_struct, i16, [16 x i8], i32, ptr, ptr, ptr, ptr, i64, ptr, i64, i64, i64, i64, ptr }
%struct._php_stream_filter_chain = type { ptr, ptr, ptr }

; Function Attrs: nounwind uwtable
define internal i32 @php_iconv_stream_filter_do_filter(ptr noundef %0, ptr noundef %1, ptr noundef %2, ptr noundef %3, ptr noundef %4, i32 noundef %5) #0 {
  %7 = alloca i32, align 4
  %8 = alloca ptr, align 8
  %9 = alloca ptr, align 8
  %10 = alloca ptr, align 8
  %11 = alloca ptr, align 8
  %12 = alloca ptr, align 8
  %13 = alloca i32, align 4
  %14 = alloca ptr, align 8
  %15 = alloca i64, align 8
  %16 = alloca ptr, align 8
  %17 = alloca i32, align 4
  store ptr %0, ptr %8, align 8, !tbaa !116
  store ptr %1, ptr %9, align 8, !tbaa !104
  store ptr %2, ptr %10, align 8, !tbaa !117
  store ptr %3, ptr %11, align 8, !tbaa !117
  store ptr %4, ptr %12, align 8, !tbaa !67
  store i32 %5, ptr %13, align 4, !tbaa !4
  call void @llvm.lifetime.start.p0(i64 8, ptr %14) #15
  store ptr null, ptr %14, align 8, !tbaa !119
  call void @llvm.lifetime.start.p0(i64 8, ptr %15) #15
  store i64 0, ptr %15, align 8, !tbaa !24
  call void @llvm.lifetime.start.p0(i64 8, ptr %16) #15
  %18 = load ptr, ptr %9, align 8, !tbaa !104
  %19 = getelementptr inbounds nuw %struct._php_stream_filter, ptr %18, i32 0, i32 1
  %20 = getelementptr inbounds nuw %struct._zval_struct, ptr %19, i32 0, i32 0
  %21 = load ptr, ptr %20, align 8, !tbaa !13
  store ptr %21, ptr %16, align 8, !tbaa !106
  br label %22

22:                                               ; preds = %51, %6
  %23 = load ptr, ptr %10, align 8, !tbaa !117
  %24 = getelementptr inbounds nuw %struct._php_stream_bucket_brigade, ptr %23, i32 0, i32 0
  %25 = load ptr, ptr %24, align 8, !tbaa !121
  %26 = icmp ne ptr %25, null
  br i1 %26, label %27, label %53

27:                                               ; preds = %22
  %28 = load ptr, ptr %10, align 8, !tbaa !117
  %29 = getelementptr inbounds nuw %struct._php_stream_bucket_brigade, ptr %28, i32 0, i32 0
  %30 = load ptr, ptr %29, align 8, !tbaa !121
  store ptr %30, ptr %14, align 8, !tbaa !119
  %31 = load ptr, ptr %14, align 8, !tbaa !119
  call void @php_stream_bucket_unlink(ptr noundef %31)
  %32 = load ptr, ptr %16, align 8, !tbaa !106
  %33 = load ptr, ptr %8, align 8, !tbaa !116
  %34 = load ptr, ptr %9, align 8, !tbaa !104
  %35 = load ptr, ptr %11, align 8, !tbaa !117
  %36 = load ptr, ptr %14, align 8, !tbaa !119
  %37 = getelementptr inbounds nuw %struct._php_stream_bucket, ptr %36, i32 0, i32 3
  %38 = load ptr, ptr %37, align 8, !tbaa !123
  %39 = load ptr, ptr %14, align 8, !tbaa !119
  %40 = getelementptr inbounds nuw %struct._php_stream_bucket, ptr %39, i32 0, i32 4
  %41 = load i64, ptr %40, align 8, !tbaa !125
  %42 = load ptr, ptr %8, align 8, !tbaa !116
  %43 = getelementptr inbounds nuw %struct._php_stream, ptr %42, i32 0, i32 7
  %44 = load i16, ptr %43, align 8
  %45 = and i16 %44, 1
  %46 = zext i16 %45 to i32
  %47 = call i32 @php_iconv_stream_filter_append_bucket(ptr noundef %32, ptr noundef %33, ptr noundef %34, ptr noundef %35, ptr noundef %38, i64 noundef %41, ptr noundef %15, i32 noundef %46)
  %48 = icmp ne i32 %47, 0
  br i1 %48, label %49, label %51

49:                                               ; preds = %27
  %50 = load ptr, ptr %14, align 8, !tbaa !119
  call void @php_stream_bucket_delref(ptr noundef %50)
  store i32 0, ptr %7, align 4
  store i32 1, ptr %17, align 4
  br label %77

51:                                               ; preds = %27
  %52 = load ptr, ptr %14, align 8, !tbaa !119
  call void @php_stream_bucket_delref(ptr noundef %52)
  br label %22

53:                                               ; preds = %22
  %54 = load i32, ptr %13, align 4, !tbaa !4
  %55 = icmp ne i32 %54, 0
  br i1 %55, label %56, label %70

56:                                               ; preds = %53
  %57 = load ptr, ptr %16, align 8, !tbaa !106
  %58 = load ptr, ptr %8, align 8, !tbaa !116
  %59 = load ptr, ptr %9, align 8, !tbaa !104
  %60 = load ptr, ptr %11, align 8, !tbaa !117
  %61 = load ptr, ptr %8, align 8, !tbaa !116
  %62 = getelementptr inbounds nuw %struct._php_stream, ptr %61, i32 0, i32 7
  %63 = load i16, ptr %62, align 8
  %64 = and i16 %63, 1
  %65 = zext i16 %64 to i32
  %66 = call i32 @php_iconv_stream_filter_append_bucket(ptr noundef %57, ptr noundef %58, ptr noundef %59, ptr noundef %60, ptr noundef null, i64 noundef 0, ptr noundef %15, i32 noundef %65)
  %67 = icmp ne i32 %66, 0
  br i1 %67, label %68, label %69

68:                                               ; preds = %56
  store i32 0, ptr %7, align 4
  store i32 1, ptr %17, align 4
  br label %77

69:                                               ; preds = %56
  br label %70

70:                                               ; preds = %69, %53
  %71 = load ptr, ptr %12, align 8, !tbaa !67
  %72 = icmp ne ptr %71, null
  br i1 %72, label %73, label %76

73:                                               ; preds = %70
  %74 = load i64, ptr %15, align 8, !tbaa !24
  %75 = load ptr, ptr %12, align 8, !tbaa !67
  store i64 %74, ptr %75, align 8, !tbaa !24
  br label %76

76:                                               ; preds = %73, %70
  store i32 2, ptr %7, align 4
  store i32 1, ptr %17, align 4
  br label %77

77:                                               ; preds = %76, %68, %49
  call void @llvm.lifetime.end.p0(i64 8, ptr %16) #15
  call void @llvm.lifetime.end.p0(i64 8, ptr %15) #15
  call void @llvm.lifetime.end.p0(i64 8, ptr %14) #15
  %78 = load i32, ptr %7, align 4
  ret i32 %78
}