; Function Attrs: nounwind uwtable
define internal range(i32 0, 3) i32 @php_iconv_stream_filter_do_filter(ptr noundef %0, ptr noundef readonly captures(none) %1, ptr noundef readonly captures(none) %2, ptr noundef %3, ptr noundef writeonly captures(address_is_null) %4, i32 noundef %5) #0 {
  %7 = alloca i64, align 8
  call void @llvm.lifetime.start.p0(i64 8, ptr nonnull %7) #16
  store i64 0, ptr %7, align 8, !tbaa !14
  %8 = getelementptr inbounds nuw i8, ptr %1, i64 8
  %9 = load ptr, ptr %8, align 8, !tbaa !4
  %10 = load ptr, ptr %2, align 8, !tbaa !99
  %.not28 = icmp eq ptr %10, null
  br i1 %.not28, label %._crit_edge, label %.lr.ph

.lr.ph:                                           ; preds = %6
  %11 = getelementptr inbounds nuw i8, ptr %0, i64 96
  br label %12

12:                                               ; preds = %.lr.ph, %22
  %13 = phi ptr [ %10, %.lr.ph ], [ %23, %22 ]
  tail call void @php_stream_bucket_unlink(ptr noundef nonnull %13) #16
  %14 = getelementptr inbounds nuw i8, ptr %13, i64 24
  %15 = load ptr, ptr %14, align 8, !tbaa !102
  %16 = getelementptr inbounds nuw i8, ptr %13, i64 32
  %17 = load i64, ptr %16, align 8, !tbaa !105
  %18 = load i16, ptr %11, align 8
  %19 = and i16 %18, 1
  %20 = zext nneg i16 %19 to i32
  %21 = call fastcc i32 @php_iconv_stream_filter_append_bucket(ptr noundef %9, ptr noundef %0, ptr noundef %3, ptr noundef %15, i64 noundef %17, ptr noundef %7, i32 noundef %20)
  %.not26 = icmp eq i32 %21, 0
  tail call void @php_stream_bucket_delref(ptr noundef nonnull %13) #16
  br i1 %.not26, label %22, label %.loopexit

22:                                               ; preds = %12
  %23 = load ptr, ptr %2, align 8, !tbaa !99
  %.not = icmp eq ptr %23, null
  br i1 %.not, label %._crit_edge, label %12

._crit_edge:                                      ; preds = %22, %6
  %.not23 = icmp eq i32 %5, 0
  br i1 %.not23, label %30, label %24

24:                                               ; preds = %._crit_edge
  %25 = getelementptr inbounds nuw i8, ptr %0, i64 96
  %26 = load i16, ptr %25, align 8
  %27 = and i16 %26, 1
  %28 = zext nneg i16 %27 to i32
  %29 = call fastcc i32 @php_iconv_stream_filter_append_bucket(ptr noundef %9, ptr noundef %0, ptr noundef %3, ptr noundef null, i64 noundef 0, ptr noundef %7, i32 noundef %28)
  %.not24 = icmp eq i32 %29, 0
  br i1 %.not24, label %30, label %.loopexit

30:                                               ; preds = %24, %._crit_edge
  %.not25 = icmp eq ptr %4, null
  br i1 %.not25, label %.loopexit, label %31

31:                                               ; preds = %30
  %32 = load i64, ptr %7, align 8, !tbaa !14
  store i64 %32, ptr %4, align 8, !tbaa !14
  br label %.loopexit

.loopexit:                                        ; preds = %12, %30, %31, %24
  %.0 = phi i32 [ 0, %24 ], [ 2, %31 ], [ 2, %30 ], [ 0, %12 ]
  call void @llvm.lifetime.end.p0(i64 8, ptr nonnull %7) #16
  ret i32 %.0
}